target datalayout = "e-m:e-p270:32:32-p271:32:32-p272:64:64-i64:64-i128:128-f80:128-n8:16:32:64-S128"
target triple = "x86_64-pc-linux-gnu"

%"class.cv::WBaseStream" = type { ptr, ptr, ptr, ptr, i32, i32, ptr, i8, ptr }

; Function Attrs: mustprogress uwtable
define hidden void @_ZN2cv11WBaseStream5closeEv(ptr noundef nonnull align 8 dereferenceable(64) %0) unnamed_addr #1 align 2 {
  %2 = alloca ptr, align 8
  store ptr %0, ptr %2, align 8, !tbaa !59
  %3 = load ptr, ptr %2, align 8
  %4 = getelementptr inbounds nuw %"class.cv::WBaseStream", ptr %3, i32 0, i32 7
  %5 = load i8, ptr %4, align 8, !tbaa !69, !range !14, !noundef !15
  %6 = trunc i8 %5 to i1
  br i1 %6, label %7, label %12

7:                                                ; preds = %1
  %8 = load ptr, ptr %3, align 8, !tbaa !21
  %9 = getelementptr inbounds ptr, ptr %8, i64 5
  %10 = load ptr, ptr %9, align 8
  %11 = call noundef zeroext i1 %10(ptr noundef nonnull align 8 dereferenceable(64) %3)
  br label %12

12:                                               ; preds = %7, %1
  %13 = getelementptr inbounds nuw %"class.cv::WBaseStream", ptr %3, i32 0, i32 6
  %14 = load ptr, ptr %13, align 8, !tbaa !66
  %15 = icmp ne ptr %14, null
  br i1 %15, label %16, label %21

16:                                               ; preds = %12
  %17 = getelementptr inbounds nuw %"class.cv::WBaseStream", ptr %3, i32 0, i32 6
  %18 = load ptr, ptr %17, align 8, !tbaa !66
  %19 = call i32 @fclose(ptr noundef %18)
  %20 = getelementptr inbounds nuw %"class.cv::WBaseStream", ptr %3, i32 0, i32 6
  store ptr null, ptr %20, align 8, !tbaa !66
  br label %21

21:                                               ; preds = %16, %12
  %22 = getelementptr inbounds nuw %"class.cv::WBaseStream", ptr %3, i32 0, i32 8
  store ptr null, ptr %22, align 8, !tbaa !70
  %23 = getelementptr inbounds nuw %"class.cv::WBaseStream", ptr %3, i32 0, i32 7
  store i8 0, ptr %23, align 8, !tbaa !69
  ret void
}