; Function Attrs: mustprogress uwtable
define hidden void @_ZN2cv11WBaseStream5closeEv(ptr noundef nonnull align 8 dereferenceable(64) %0) unnamed_addr #1 align 2 {
  %2 = getelementptr inbounds nuw i8, ptr %0, i64 48
  %3 = load i8, ptr %2, align 8, !tbaa !51, !range !12, !noundef !13
  %4 = trunc nuw i8 %3 to i1
  br i1 %4, label %5, label %10

5:                                                ; preds = %1
  %6 = load ptr, ptr %0, align 8, !tbaa !19
  %7 = getelementptr inbounds nuw i8, ptr %6, i64 40
  %8 = load ptr, ptr %7, align 8
  %9 = tail call noundef zeroext i1 %8(ptr noundef nonnull align 8 dereferenceable(64) %0)
  br label %10

10:                                               ; preds = %5, %1
  %11 = getelementptr inbounds nuw i8, ptr %0, i64 40
  %12 = load ptr, ptr %11, align 8, !tbaa !46
  %.not = icmp eq ptr %12, null
  br i1 %.not, label %15, label %13

13:                                               ; preds = %10
  %14 = tail call i32 @fclose(ptr noundef nonnull %12)
  store ptr null, ptr %11, align 8, !tbaa !46
  br label %15

15:                                               ; preds = %13, %10
  %16 = getelementptr inbounds nuw i8, ptr %0, i64 56
  store ptr null, ptr %16, align 8, !tbaa !52
  store i8 0, ptr %2, align 8, !tbaa !51
  ret void
}